; Function Attrs: mustprogress uwtable
define void @_ZN3gmx6Update4Impl28update_for_constraint_virialERK10t_inputrecibNS_8ArrayRefIKfEENS5_IKNS_11BasicVectorIfEEEERK7t_stateRKNS_19ArrayRefWithPaddingISA_EERK14gmx_ekindata_t(ptr noundef nonnull align 8 dereferenceable(232) %0, ptr nocapture noundef nonnull readonly align 8 dereferenceable(856) %1, i32 noundef %2, i1 noundef zeroext %3, ptr %4, ptr %5, ptr noundef byval(%"class.gmx::ArrayRef.103") align 8 %6, ptr noundef nonnull align 8 dereferenceable(832) %7, ptr noundef nonnull align 8 dereferenceable(24) %8, ptr noundef nonnull align 8 dereferenceable(212) %9) local_unnamed_addr #0 align 2 {
  %11 = alloca %"class.gmx::ArrayRef.100", align 8
  %12 = alloca i32, align 4
  %13 = alloca i8, align 1
  %14 = alloca float, align 4
  %15 = alloca i32, align 4
  %16 = tail call i32 @__kmpc_global_thread_num(ptr nonnull @2)
  store ptr %4, ptr %11, align 8
  %17 = getelementptr inbounds i8, ptr %11, i64 8
  store ptr %5, ptr %17, align 8
  store i32 %2, ptr %12, align 4
  %18 = zext i1 %3 to i8
  store i8 %18, ptr %13, align 1
  %19 = getelementptr inbounds i8, ptr %1, i64 88
  %20 = load double, ptr %19, align 8
  %21 = fptrunc double %20 to float
  store float %21, ptr %14, align 4
  %22 = tail call noundef i32 @_Z20gmx_omp_nthreads_get17ModuleMultiThread(i32 noundef 6)
  store i32 %22, ptr %15, align 4
  tail call void @__kmpc_push_num_threads(ptr nonnull @2, i32 %16, i32 %22)
  call void (ptr, i32, ptr, ...) @__kmpc_fork_call(ptr nonnull @2, i32 10, ptr nonnull @_ZN3gmx6Update4Impl28update_for_constraint_virialERK10t_inputrecibNS_8ArrayRefIKfEENS5_IKNS_11BasicVectorIfEEEERK7t_stateRKNS_19ArrayRefWithPaddingISA_EERK14gmx_ekindata_t.omp_outlined, ptr nonnull %15, ptr nonnull %12, ptr nonnull %7, ptr nonnull %0, ptr nonnull %8, ptr nonnull %14, ptr nonnull %13, ptr nonnull %11, ptr nonnull %6, ptr nonnull %9)
  ret void
}